Certificate:
    Data:
        Version: 3 (0x2)
        Serial Number: 14 (0xe)
        Signature Algorithm: md5WithRSAEncryption
        Issuer: C=DE, ST=Mecklenburg-Vorpommern, O=Opennet Initiative e.V., OU=user gateways, CN=hog-ugws-intermCA.ca.on/emailAddress=admin@opennet-initiative.de
        Validity
            Not Before: Apr  2 00:42:52 2013 GMT
            Not After : Mar 31 00:42:52 2023 GMT
        Subject: C=de, ST=Mecklenburg-Vorpommern, O=Lars Kruse, OU=user gateways, CN=1.202.ugw.on/emailAddress=lars@systemausfall.org
        Subject Public Key Info:
            Public Key Algorithm: rsaEncryption
            RSA Public Key: (1024 bit)
                Modulus (1024 bit):
                    00:a8:85:0f:3a:b9:30:0a:e1:ae:39:7a:14:b3:70:
                    cc:04:bf:cf:d4:de:7d:f2:d2:49:e4:1c:53:bd:24:
                    96:1b:4f:95:67:de:28:bf:c3:5a:0d:b1:4f:b4:63:
                    46:b2:22:d1:5a:d8:e3:81:e5:9e:2f:31:f5:c5:a0:
                    19:db:b1:ed:f3:f1:53:81:e9:50:60:db:b9:1f:e7:
                    3d:91:64:17:90:55:7e:ea:cf:5a:f2:3d:91:60:fd:
                    54:0f:d5:5d:cd:3c:f7:a9:bc:d0:ed:99:77:af:a4:
                    03:db:50:13:72:99:11:29:25:c4:e5:ae:24:d9:78:
                    ec:80:fb:10:01:98:ce:12:43
                Exponent: 65537 (0x10001)
        X509v3 extensions:
            X509v3 Basic Constraints: 
                CA:FALSE
            Netscape Comment: 
                OpenSSL Generated Certificate
            X509v3 Subject Key Identifier: 
                B5:00:B0:A7:76:76:6B:F6:C1:07:DA:EC:07:0B:2E:A0:AB:3A:90:4C
            X509v3 Authority Key Identifier: 
                keyid:A9:42:13:FD:70:93:16:B8:0C:F6:FA:29:AC:73:84:C9:18:63:F6:CC
                DirName:/C=DE/ST=Mecklenburg-Vorpommern/L=Rostock/O=OpenNet/OU=user gateways/CN=User gateway CA/emailAddress=admin@opennet-initiative.de
                serial:45

    Signature Algorithm: md5WithRSAEncryption
        29:21:4a:eb:75:58:f0:f4:99:b0:7a:0b:d7:a8:d2:a9:bf:ba:
        be:e5:de:19:d8:61:a7:45:da:c7:87:d0:a4:54:0f:a4:8e:ac:
        db:46:db:c5:ae:70:fd:02:2d:22:89:c3:50:cd:a5:f4:00:49:
        5d:09:07:9f:25:7f:a5:bd:77:24:0d:f1:d6:8e:1b:d8:89:21:
        78:09:42:a5:d1:ed:a3:f0:3c:59:41:c1:8f:0e:1e:26:08:5e:
        41:d1:0b:e2:6f:22:8a:c1:c8:cd:b6:9e:4a:84:6e:04:f7:ee:
        27:11:a6:0e:de:8e:89:01:b1:71:de:d4:c5:b7:48:b5:60:3a:
        98:c4
-----BEGIN CERTIFICATE-----
MIIEBTCCA26gAwIBAgIBDjANBgkqhkiG9w0BAQQFADCBtjELMAkGA1UEBhMCREUx
HzAdBgNVBAgTFk1lY2tsZW5idXJnLVZvcnBvbW1lcm4xIDAeBgNVBAoTF09wZW5u
ZXQgSW5pdGlhdGl2ZSBlLlYuMRYwFAYDVQQLEw11c2VyIGdhdGV3YXlzMSAwHgYD
VQQDExdob2ctdWd3cy1pbnRlcm1DQS5jYS5vbjEqMCgGCSqGSIb3DQEJARYbYWRt
aW5Ab3Blbm5ldC1pbml0aWF0aXZlLmRlMB4XDTEzMDQwMjAwNDI1MloXDTIzMDMz
MTAwNDI1MlowgZkxCzAJBgNVBAYTAmRlMR8wHQYDVQQIExZNZWNrbGVuYnVyZy1W
b3Jwb21tZXJuMRMwEQYDVQQKEwpMYXJzIEtydXNlMRYwFAYDVQQLEw11c2VyIGdh
dGV3YXlzMRUwEwYDVQQDEwwxLjIwMi51Z3cub24xJTAjBgkqhkiG9w0BCQEWFmxh
cnNAc3lzdGVtYXVzZmFsbC5vcmcwgZ8wDQYJKoZIhvcNAQEBBQADgY0AMIGJAoGB
AKiFDzq5MArhrjl6FLNwzAS/z9TeffLSSeQcU70klhtPlWfeKL/DWg2xT7RjRrIi
0VrY44Hlni8x9cWgGdux7fPxU4HpUGDbuR/nPZFkF5BVfurPWvI9kWD9VA/VXc08
96m80O2Zd6+kA9tQE3KZESklxOWuJNl47ID7EAGYzhJDAgMBAAGjggE8MIIBODAJ
BgNVHRMEAjAAMCwGCWCGSAGG+EIBDQQfFh1PcGVuU1NMIEdlbmVyYXRlZCBDZXJ0
aWZpY2F0ZTAdBgNVHQ4EFgQUtQCwp3Z2a/bBB9rsBwsuoKs6kEwwgd0GA1UdIwSB
1TCB0oAUqUIT/XCTFrgM9voprHOEyRhj9syhgbakgbMwgbAxCzAJBgNVBAYTAkRF
MR8wHQYDVQQIExZNZWNrbGVuYnVyZy1Wb3Jwb21tZXJuMRAwDgYDVQQHEwdSb3N0
b2NrMRAwDgYDVQQKEwdPcGVuTmV0MRYwFAYDVQQLEw11c2VyIGdhdGV3YXlzMRgw
FgYDVQQDEw9Vc2VyIGdhdGV3YXkgQ0ExKjAoBgkqhkiG9w0BCQEWG2FkbWluQG9w
ZW5uZXQtaW5pdGlhdGl2ZS5kZYIBRTANBgkqhkiG9w0BAQQFAAOBgQApIUrrdVjw
9JmwegvXqNKpv7q+5d4Z2GGnRdrHh9CkVA+kjqzbRtvFrnD9Ai0iicNQzaX0AEld
CQefJX+lvXckDfHWjhvYiSF4CUKl0e2j8DxZQcGPDh4mCF5B0QvibyKKwcjNtp5K
hG4E9+4nEaYO3o6JAbFx3tTFt0i1YDqYxA==
-----END CERTIFICATE-----
