Certificate:
    Data:
        Version: 3 (0x2)
        Serial Number:
            9e:76:cf:71:0f:71:fe:f1
    Signature Algorithm: sha256WithRSAEncryption
        Issuer: C=DE, ST=Mecklenburg-Vorpommern, O=Opennet Initiative e.V., OU=Opennet CA, CN=opennet-root.ca.on/emailAddress=admin@opennet-initiative.de
        Validity
            Not Before: Mar 30 10:07:32 2014 GMT
            Not After : Mar 27 10:07:32 2024 GMT
        Subject: C=DE, ST=Mecklenburg-Vorpommern, O=Opennet Initiative e.V., OU=Opennet CA, CN=opennet-server.ca.on/emailAddress=admin@opennet-initiative.de
        Subject Public Key Info:
            Public Key Algorithm: rsaEncryption
                Public-Key: (2048 bit)
                Modulus:
                    00:e7:ba:ef:b8:14:67:e4:f6:97:9c:12:19:48:a5:
                    f8:38:36:57:61:67:a7:bd:c6:e1:3a:af:5c:67:bc:
                    a0:b0:57:e2:63:8c:6b:05:54:3e:d3:74:8e:27:a9:
                    1a:76:49:4f:e8:98:a7:dc:3c:88:01:8c:08:7f:48:
                    56:4e:f1:76:0c:cd:17:66:8a:80:b6:aa:b7:e6:53:
                    02:25:76:20:64:f9:10:fc:19:8c:e0:1f:88:9b:fd:
                    42:b5:b2:ae:ae:d3:90:b6:73:0a:ab:8a:bb:ed:29:
                    84:6f:d3:5b:b0:84:7f:82:47:ba:1a:19:7d:01:1c:
                    9e:61:d4:46:19:79:15:cd:5f:52:ba:b5:40:07:e2:
                    02:42:75:da:9a:fe:e5:fa:b1:8d:9a:d5:30:4f:ff:
                    ff:a9:a3:5e:f8:4a:ba:fb:c8:f6:9b:7b:80:9d:30:
                    4b:b3:66:e6:0a:ec:20:74:a7:36:a5:a9:25:69:7e:
                    a3:b8:40:df:f4:27:8f:ec:d3:7e:e3:0c:1a:10:47:
                    9b:fd:d4:c9:52:e3:f1:83:79:ea:1d:43:aa:83:2d:
                    4f:76:69:bd:57:2f:56:80:a2:68:ef:5f:e6:93:6f:
                    13:91:e8:f5:4b:9e:6a:c3:e5:f5:54:20:86:87:04:
                    2c:9c:0a:73:c8:49:aa:53:2b:a8:f1:b8:dd:bb:03:
                    9c:c7
                Exponent: 65537 (0x10001)
        X509v3 extensions:
            X509v3 Basic Constraints: 
                CA:TRUE
            X509v3 Authority Key Identifier: 
                keyid:FA:DA:A6:25:24:2C:20:E7:E5:A3:5F:2F:9F:6B:C1:EA:19:1A:F8:C1

            X509v3 Subject Key Identifier: 
                C1:C2:B5:2E:E4:85:E0:E9:43:D3:9A:4B:A2:39:76:94:0F:E1:C1:41
            Netscape Comment: 
                Opennet Root CA
            Netscape CA Policy Url: 
                http://ca.opennet-initiative.de/
            Netscape CA Revocation Url: 
                http://ca.opennet-initiative.de/root.crl
            Netscape Revocation Url: 
                http://ca.opennet-initiative.de/root.crl
            Netscape Base Url: 
                http://ca.opennet-initiative.de/
            X509v3 CRL Distribution Points: 

                Full Name:
                  URI:http://ca.opennet-initiative.de/root.crl

    Signature Algorithm: sha256WithRSAEncryption
         45:31:cb:83:42:5b:b5:e2:01:6f:74:a6:c8:6f:01:0c:d3:b3:
         56:12:d9:44:ce:a9:ad:d6:7e:27:e8:9e:99:08:3d:23:82:3c:
         cc:51:a4:18:bc:6e:9b:b3:ec:8c:93:6c:18:9a:88:54:b7:11:
         a4:a3:26:5c:82:ce:c9:0b:52:de:ed:1b:f2:6b:74:5c:af:de:
         fb:34:e5:48:76:d0:7d:85:b0:7d:1a:dc:2b:50:5d:f5:b7:c5:
         bc:b4:f1:6a:77:50:c8:1e:21:12:6d:89:fe:ed:67:07:be:78:
         e7:3d:98:b0:3c:99:5f:b2:27:19:5f:36:5e:23:40:63:8a:84:
         64:86:ba:57:f9:4d:1b:11:10:aa:d1:10:23:83:80:a6:b7:c9:
         9c:b3:ed:29:93:25:20:f0:02:e1:30:cc:02:dd:53:17:eb:08:
         56:a9:37:da:89:70:e3:36:b5:61:e2:37:c2:71:e2:82:e6:97:
         aa:02:89:56:33:b3:aa:c2:0f:4b:17:88:2f:43:6c:4f:b9:45:
         4d:79:45:ed:a0:39:7b:06:9f:8b:10:3b:64:45:ab:e8:a4:6c:
         e2:a3:0a:0a:ed:ac:06:de:30:cd:e9:d4:b2:97:29:12:83:de:
         f2:36:1c:7b:e6:64:66:1c:76:c4:94:c6:76:c6:22:84:0c:8f:
         ec:13:95:9f:cc:af:4b:7c:fd:76:9b:86:16:3b:1d:f2:72:99:
         5e:5a:9a:39:10:21:61:19:56:d8:90:77:f2:dd:bf:03:1b:04:
         5b:e2:8d:55:52:f1:a8:e0:6f:f8:2c:f5:79:c9:72:61:2a:27:
         f9:f8:0d:e0:21:b2:6d:f5:58:a1:c4:0d:d7:f9:27:e7:96:11:
         be:f2:89:21:77:2e:38:a8:9d:18:f5:a3:f6:85:30:8f:5a:d5:
         e3:3b:c6:55:99:f5:6d:4b:c5:b1:75:c8:dc:a0:0d:bd:f5:8c:
         2f:e0:74:ac:b7:f6:7a:89:bc:52:23:01:43:bb:23:be:04:29:
         fa:b4:87:a3:e9:6e:9a:44:a2:fa:dd:f6:39:f2:f8:ba:09:c1:
         b7:2f:81:5d:e9:3c:0a:5b:d9:8c:ef:9c:e4:7b:eb:0f:f3:66:
         5a:eb:a4:59:1d:03:88:38:87:2e:94:e9:af:e4:4c:4e:84:db:
         0a:4b:d8:87:42:61:f4:31:86:f9:2f:1e:d7:89:c3:c2:a4:b2:
         56:bf:10:ff:c9:ca:c9:0f:1c:a1:74:1e:f8:9a:12:e8:8e:36:
         0b:c0:4a:df:da:bd:45:17:f9:c6:8a:f6:ac:53:2c:f1:3e:c0:
         bc:5a:f5:01:d0:00:d0:2b:0a:c7:b7:64:c3:9b:3f:d2:0f:3c:
         38:ee:8d:bb:ce:25:ae:1b
-----BEGIN CERTIFICATE-----
MIIGZjCCBE6gAwIBAgIJAJ52z3EPcf7xMA0GCSqGSIb3DQEBCwUAMIGuMQswCQYD
VQQGEwJERTEfMB0GA1UECBMWTWVja2xlbmJ1cmctVm9ycG9tbWVybjEgMB4GA1UE
ChMXT3Blbm5ldCBJbml0aWF0aXZlIGUuVi4xEzARBgNVBAsTCk9wZW5uZXQgQ0Ex
GzAZBgNVBAMTEm9wZW5uZXQtcm9vdC5jYS5vbjEqMCgGCSqGSIb3DQEJARYbYWRt
aW5Ab3Blbm5ldC1pbml0aWF0aXZlLmRlMB4XDTE0MDMzMDEwMDczMloXDTI0MDMy
NzEwMDczMlowgbAxCzAJBgNVBAYTAkRFMR8wHQYDVQQIExZNZWNrbGVuYnVyZy1W
b3Jwb21tZXJuMSAwHgYDVQQKExdPcGVubmV0IEluaXRpYXRpdmUgZS5WLjETMBEG
A1UECxMKT3Blbm5ldCBDQTEdMBsGA1UEAxMUb3Blbm5ldC1zZXJ2ZXIuY2Eub24x
KjAoBgkqhkiG9w0BCQEWG2FkbWluQG9wZW5uZXQtaW5pdGlhdGl2ZS5kZTCCASIw
DQYJKoZIhvcNAQEBBQADggEPADCCAQoCggEBAOe677gUZ+T2l5wSGUil+Dg2V2Fn
p73G4TqvXGe8oLBX4mOMawVUPtN0jiepGnZJT+iYp9w8iAGMCH9IVk7xdgzNF2aK
gLaqt+ZTAiV2IGT5EPwZjOAfiJv9QrWyrq7TkLZzCquKu+0phG/TW7CEf4JHuhoZ
fQEcnmHURhl5Fc1fUrq1QAfiAkJ12pr+5fqxjZrVME///6mjXvhKuvvI9pt7gJ0w
S7Nm5grsIHSnNqWpJWl+o7hA3/Qnj+zTfuMMGhBHm/3UyVLj8YN56h1DqoMtT3Zp
vVcvVoCiaO9f5pNvE5Ho9UueasPl9VQghocELJwKc8hJqlMrqPG43bsDnMcCAwEA
AaOCAYEwggF9MAwGA1UdEwQFMAMBAf8wHwYDVR0jBBgwFoAU+tqmJSQsIOflo18v
n2vB6hka+MEwHQYDVR0OBBYEFMHCtS7kheDpQ9OaS6I5dpQP4cFBMB4GCWCGSAGG
+EIBDQQRFg9PcGVubmV0IFJvb3QgQ0EwLwYJYIZIAYb4QgEIBCIWIGh0dHA6Ly9j
YS5vcGVubmV0LWluaXRpYXRpdmUuZGUvMDcGCWCGSAGG+EIBBAQqFihodHRwOi8v
Y2Eub3Blbm5ldC1pbml0aWF0aXZlLmRlL3Jvb3QuY3JsMDcGCWCGSAGG+EIBAwQq
FihodHRwOi8vY2Eub3Blbm5ldC1pbml0aWF0aXZlLmRlL3Jvb3QuY3JsMC8GCWCG
SAGG+EIBAgQiFiBodHRwOi8vY2Eub3Blbm5ldC1pbml0aWF0aXZlLmRlLzA5BgNV
HR8EMjAwMC6gLKAqhihodHRwOi8vY2Eub3Blbm5ldC1pbml0aWF0aXZlLmRlL3Jv
b3QuY3JsMA0GCSqGSIb3DQEBCwUAA4ICAQBFMcuDQlu14gFvdKbIbwEM07NWEtlE
zqmt1n4n6J6ZCD0jgjzMUaQYvG6bs+yMk2wYmohUtxGkoyZcgs7JC1Le7Rvya3Rc
r977NOVIdtB9hbB9GtwrUF31t8W8tPFqd1DIHiESbYn+7WcHvnjnPZiwPJlfsicZ
XzZeI0BjioRkhrpX+U0bERCq0RAjg4Cmt8mcs+0pkyUg8ALhMMwC3VMX6whWqTfa
iXDjNrVh4jfCceKC5peqAolWM7Oqwg9LF4gvQ2xPuUVNeUXtoDl7Bp+LEDtkRavo
pGziowoK7awG3jDN6dSylykSg97yNhx75mRmHHbElMZ2xiKEDI/sE5WfzK9LfP12
m4YWOx3ycpleWpo5ECFhGVbYkHfy3b8DGwRb4o1VUvGo4G/4LPV5yXJhKif5+A3g
IbJt9VihxA3X+SfnlhG+8okhdy44qJ0Y9aP2hTCPWtXjO8ZVmfVtS8WxdcjcoA29
9Ywv4HSst/Z6ibxSIwFDuyO+BCn6tIej6W6aRKL63fY58vi6CcG3L4Fd6TwKW9mM
75zke+sP82Za66RZHQOIOIculOmv5ExOhNsKS9iHQmH0MYb5Lx7XicPCpLJWvxD/
ycrJDxyhdB74mhLojjYLwErf2r1FF/nGivasUyzxPsC8WvUB0ADQKwrHt2TDmz/S
Dzw47o27ziWuGw==
-----END CERTIFICATE-----
