Certificate:
    Data:
        Version: 3 (0x2)
        Serial Number: 0 (0x0)
    Signature Algorithm: md5WithRSAEncryption
        Issuer: C=DE, ST=Mecklenburg-Vorpommern, L=Rostock, O=OpenNet, OU=user gateways, CN=User gateway CA/emailAddress=admin@opennet-initiative.de
        Validity
            Not Before: May 27 18:52:18 2006 GMT
            Not After : May 24 18:52:18 2016 GMT
        Subject: C=DE, ST=Mecklenburg-Vorpommern, L=Rostock, O=OpenNet, OU=user gateways, CN=User gateway CA/emailAddress=admin@opennet-initiative.de
        Subject Public Key Info:
            Public Key Algorithm: rsaEncryption
                Public-Key: (2048 bit)
                Modulus:
                    00:c4:cb:cb:c5:26:71:9b:24:95:bc:f6:22:1b:10:
                    b8:a5:06:d0:46:77:e6:2c:45:39:be:b8:10:e1:f3:
                    5b:1e:26:bd:48:3f:c0:c1:0b:4e:b8:85:b1:c9:c9:
                    64:00:a9:25:de:f8:07:f7:d7:2c:0e:a2:2d:7f:9b:
                    08:9e:41:10:2a:5b:18:32:23:20:df:87:46:18:6e:
                    da:4f:d9:2e:a5:ae:50:57:24:10:52:bd:94:7b:19:
                    91:7d:04:85:9f:df:98:ed:23:4b:a2:ef:2d:c2:ae:
                    3e:96:53:60:66:7b:5c:0f:45:42:a8:d6:47:ca:8b:
                    09:8f:3c:87:b1:1e:f4:36:12:13:eb:35:ca:5f:e2:
                    ca:b4:43:1a:fa:c0:23:c5:f5:55:f6:65:33:15:e9:
                    4c:34:47:63:2f:0c:d9:0a:e7:36:15:82:7e:88:df:
                    0a:0e:df:9d:b4:c5:1c:64:5e:85:37:56:7f:6c:f8:
                    4c:65:08:51:01:bb:62:04:0b:17:18:1a:ee:7d:9c:
                    5e:f9:55:0e:ef:24:7e:fe:d6:f2:4d:6f:17:cc:82:
                    a1:80:d9:2f:a2:28:85:54:19:8c:18:9d:a5:57:f2:
                    82:d4:42:31:15:4e:37:55:cf:c3:2a:86:ae:ab:c8:
                    e6:11:d9:05:b0:99:29:11:6f:bf:b9:81:ed:55:45:
                    3f:05
                Exponent: 65537 (0x10001)
        X509v3 extensions:
            X509v3 Subject Key Identifier: 
                C2:D1:D8:86:28:3F:F6:11:91:76:48:00:73:1B:7C:24:98:6A:E8:3C
            X509v3 Authority Key Identifier: 
                keyid:C2:D1:D8:86:28:3F:F6:11:91:76:48:00:73:1B:7C:24:98:6A:E8:3C
                DirName:/C=DE/ST=Mecklenburg-Vorpommern/L=Rostock/O=OpenNet/OU=user gateways/CN=User gateway CA/emailAddress=admin@opennet-initiative.de
                serial:00

            X509v3 Basic Constraints: 
                CA:TRUE
    Signature Algorithm: md5WithRSAEncryption
         ab:6e:23:22:67:60:9b:73:85:70:56:0f:93:75:15:3d:bc:71:
         b3:27:6d:20:0a:db:46:42:12:9c:1f:7f:7b:8a:b9:51:40:d0:
         d5:8a:ad:bf:35:04:5e:d0:12:9d:6b:88:13:8f:ff:d1:35:b5:
         7f:66:b8:4a:ad:0b:3b:4a:de:b2:55:54:b7:e7:67:ca:9e:62:
         7a:85:92:15:89:37:ef:0a:62:e7:fc:60:52:29:bd:e2:a8:fa:
         db:e0:a7:77:63:b8:e3:33:8a:4d:ee:64:82:4b:b2:88:bc:87:
         14:4e:2c:f4:67:cc:08:61:9b:00:0d:f5:f2:ba:f4:fa:bd:5c:
         24:6d:7b:28:e4:ee:03:c4:d8:c6:41:3b:59:a7:07:89:1d:c8:
         2c:d1:5f:8f:cd:4d:8e:c0:d3:69:51:73:e8:32:06:bb:37:1e:
         c7:ea:80:7b:f9:7b:b5:91:62:20:70:f6:a6:a7:fd:d2:bf:f2:
         48:cc:d0:28:d8:7a:1e:90:ba:29:ad:d6:65:ec:cc:6c:e8:07:
         36:7d:e0:aa:4b:ad:6a:1d:d3:b2:2a:7a:85:65:1a:e9:c5:c4:
         b8:42:ea:42:c8:c6:82:53:79:e1:e9:60:8f:32:c3:eb:35:1d:
         00:08:15:49:82:36:b5:9b:72:f5:36:61:c1:a7:d3:b4:76:6e:
         20:1f:cf:e4
-----BEGIN CERTIFICATE-----
MIIE8DCCA9igAwIBAgIBADANBgkqhkiG9w0BAQQFADCBsDELMAkGA1UEBhMCREUx
HzAdBgNVBAgTFk1lY2tsZW5idXJnLVZvcnBvbW1lcm4xEDAOBgNVBAcTB1Jvc3Rv
Y2sxEDAOBgNVBAoTB09wZW5OZXQxFjAUBgNVBAsTDXVzZXIgZ2F0ZXdheXMxGDAW
BgNVBAMTD1VzZXIgZ2F0ZXdheSBDQTEqMCgGCSqGSIb3DQEJARYbYWRtaW5Ab3Bl
bm5ldC1pbml0aWF0aXZlLmRlMB4XDTA2MDUyNzE4NTIxOFoXDTE2MDUyNDE4NTIx
OFowgbAxCzAJBgNVBAYTAkRFMR8wHQYDVQQIExZNZWNrbGVuYnVyZy1Wb3Jwb21t
ZXJuMRAwDgYDVQQHEwdSb3N0b2NrMRAwDgYDVQQKEwdPcGVuTmV0MRYwFAYDVQQL
Ew11c2VyIGdhdGV3YXlzMRgwFgYDVQQDEw9Vc2VyIGdhdGV3YXkgQ0ExKjAoBgkq
hkiG9w0BCQEWG2FkbWluQG9wZW5uZXQtaW5pdGlhdGl2ZS5kZTCCASIwDQYJKoZI
hvcNAQEBBQADggEPADCCAQoCggEBAMTLy8UmcZsklbz2IhsQuKUG0EZ35ixFOb64
EOHzWx4mvUg/wMELTriFscnJZACpJd74B/fXLA6iLX+bCJ5BECpbGDIjIN+HRhhu
2k/ZLqWuUFckEFK9lHsZkX0EhZ/fmO0jS6LvLcKuPpZTYGZ7XA9FQqjWR8qLCY88
h7Ee9DYSE+s1yl/iyrRDGvrAI8X1VfZlMxXpTDRHYy8M2QrnNhWCfojfCg7fnbTF
HGRehTdWf2z4TGUIUQG7YgQLFxga7n2cXvlVDu8kfv7W8k1vF8yCoYDZL6IohVQZ
jBidpVfygtRCMRVON1XPwyqGrqvI5hHZBbCZKRFvv7mB7VVFPwUCAwEAAaOCAREw
ggENMB0GA1UdDgQWBBTC0diGKD/2EZF2SABzG3wkmGroPDCB3QYDVR0jBIHVMIHS
gBTC0diGKD/2EZF2SABzG3wkmGroPKGBtqSBszCBsDELMAkGA1UEBhMCREUxHzAd
BgNVBAgTFk1lY2tsZW5idXJnLVZvcnBvbW1lcm4xEDAOBgNVBAcTB1Jvc3RvY2sx
EDAOBgNVBAoTB09wZW5OZXQxFjAUBgNVBAsTDXVzZXIgZ2F0ZXdheXMxGDAWBgNV
BAMTD1VzZXIgZ2F0ZXdheSBDQTEqMCgGCSqGSIb3DQEJARYbYWRtaW5Ab3Blbm5l
dC1pbml0aWF0aXZlLmRlggEAMAwGA1UdEwQFMAMBAf8wDQYJKoZIhvcNAQEEBQAD
ggEBAKtuIyJnYJtzhXBWD5N1FT28cbMnbSAK20ZCEpwff3uKuVFA0NWKrb81BF7Q
Ep1riBOP/9E1tX9muEqtCztK3rJVVLfnZ8qeYnqFkhWJN+8KYuf8YFIpveKo+tvg
p3djuOMzik3uZIJLsoi8hxROLPRnzAhhmwAN9fK69Pq9XCRteyjk7gPE2MZBO1mn
B4kdyCzRX4/NTY7A02lRc+gyBrs3HsfqgHv5e7WRYiBw9qan/dK/8kjM0CjYeh6Q
uimt1mXszGzoBzZ94KpLrWod07IqeoVlGunFxLhC6kLIxoJTeeHpYI8yw+s1HQAI
FUmCNrWbcvU2YcGn07R2biAfz+Q=
-----END CERTIFICATE-----
