Certificate:
    Data:
        Version: 3 (0x2)
        Serial Number: 0 (0x0)
    Signature Algorithm: md5WithRSAEncryption
        Issuer: C=DE, ST=Mecklenburg-Vorpommern, L=Rostock, O=OpenNet, CN=OpenNet-CA/emailAddress=info@opennet-forum.de
        Validity
            Not Before: Apr 14 15:27:40 2005 GMT
            Not After : Apr 12 15:27:40 2015 GMT
        Subject: C=DE, ST=Mecklenburg-Vorpommern, L=Rostock, O=OpenNet, CN=OpenNet-CA/emailAddress=info@opennet-forum.de
        Subject Public Key Info:
            Public Key Algorithm: rsaEncryption
                Public-Key: (2048 bit)
                Modulus:
                    00:bb:52:ff:c9:31:58:70:64:22:0d:ef:c1:81:a7:
                    65:cf:77:98:cb:3d:33:66:d8:5e:8c:ff:15:45:d4:
                    08:b2:a5:d2:d8:7a:36:3a:33:2c:33:10:90:3a:9a:
                    5a:49:3e:e5:0f:59:56:96:21:b6:60:33:c2:29:20:
                    a6:29:65:c2:63:9e:f6:5e:05:19:f7:c4:2a:61:3d:
                    70:7e:33:7c:84:0c:03:6b:de:f8:cb:94:bf:25:7e:
                    c3:e1:c6:1c:dc:36:42:87:48:c8:13:a8:04:bb:bd:
                    9b:07:77:11:49:a3:80:e2:2e:5c:cc:74:57:b1:6c:
                    64:7d:d1:75:f4:1b:0f:80:c3:29:df:00:b1:fc:88:
                    cd:8f:52:94:fc:07:d5:01:35:38:88:17:47:7b:be:
                    1f:ce:e8:9f:78:9b:02:c7:d5:1b:04:eb:a0:3f:74:
                    d4:de:54:cd:9a:93:91:00:92:0f:e3:01:98:c0:fa:
                    f2:3f:ed:39:93:64:5c:11:d3:af:a2:52:8f:a9:9c:
                    e2:da:18:bb:69:a0:de:de:36:fa:6e:ec:e3:95:02:
                    57:64:dc:03:4a:d1:63:9e:5a:98:7b:8a:1f:75:d3:
                    82:11:4b:d0:57:a6:81:90:b2:57:7b:c2:d7:3d:58:
                    e4:71:be:2c:13:d4:40:aa:7b:93:4b:aa:63:fc:1e:
                    b7:9f
                Exponent: 65537 (0x10001)
        X509v3 extensions:
            X509v3 Subject Key Identifier: 
                2A:86:FF:2F:E5:31:E6:6C:12:22:15:BF:96:9C:56:81:72:EB:B8:32
            X509v3 Authority Key Identifier: 
                keyid:2A:86:FF:2F:E5:31:E6:6C:12:22:15:BF:96:9C:56:81:72:EB:B8:32
                DirName:/C=DE/ST=Mecklenburg-Vorpommern/L=Rostock/O=OpenNet/CN=OpenNet-CA/emailAddress=info@opennet-forum.de
                serial:00

            X509v3 Basic Constraints: 
                CA:TRUE
    Signature Algorithm: md5WithRSAEncryption
         2d:d6:e1:7d:4c:58:31:df:d6:59:a7:02:14:f5:64:50:93:e3:
         6f:bf:cb:d7:33:7c:fa:c4:03:a7:0b:54:74:94:3a:e6:12:fe:
         e4:c4:91:46:05:14:17:3e:ff:07:50:3d:79:6e:26:50:79:0d:
         34:40:85:0d:30:47:7c:b3:dd:af:f6:37:6b:73:9d:83:67:c8:
         af:bd:af:1e:89:e7:d4:7c:f2:5b:3c:9b:5d:b0:a5:a9:0a:a4:
         0b:40:8a:42:99:ec:37:75:e3:ad:7c:c3:7c:64:ca:bb:6e:85:
         10:d5:d8:27:88:99:7c:9e:65:09:cc:97:52:82:95:98:f4:c3:
         04:95:50:4d:98:9d:3c:fb:e5:88:ec:97:a0:36:97:7e:3b:b8:
         fb:68:bf:98:5e:d5:9c:f9:ea:5f:6c:aa:82:ca:34:22:1a:30:
         58:43:1c:e0:1f:8e:fb:52:35:bf:46:39:c9:63:7b:fc:c0:07:
         d7:ad:81:82:7d:9b:c9:60:80:3c:02:6c:2a:ed:27:8c:54:7b:
         80:7a:ae:be:bb:91:e1:0a:d9:64:9a:c5:e8:82:9b:b0:e0:a5:
         bb:54:54:c2:40:9f:6f:52:24:bb:30:88:30:d6:8a:21:98:35:
         dd:d7:cc:91:a7:0e:3e:e0:6b:21:cd:e6:84:44:dd:84:6d:a3:
         c7:16:55:17
-----BEGIN CERTIFICATE-----
MIIEhTCCA22gAwIBAgIBADANBgkqhkiG9w0BAQQFADCBjTELMAkGA1UEBhMCREUx
HzAdBgNVBAgTFk1lY2tsZW5idXJnLVZvcnBvbW1lcm4xEDAOBgNVBAcTB1Jvc3Rv
Y2sxEDAOBgNVBAoTB09wZW5OZXQxEzARBgNVBAMTCk9wZW5OZXQtQ0ExJDAiBgkq
hkiG9w0BCQEWFWluZm9Ab3Blbm5ldC1mb3J1bS5kZTAeFw0wNTA0MTQxNTI3NDBa
Fw0xNTA0MTIxNTI3NDBaMIGNMQswCQYDVQQGEwJERTEfMB0GA1UECBMWTWVja2xl
bmJ1cmctVm9ycG9tbWVybjEQMA4GA1UEBxMHUm9zdG9jazEQMA4GA1UEChMHT3Bl
bk5ldDETMBEGA1UEAxMKT3Blbk5ldC1DQTEkMCIGCSqGSIb3DQEJARYVaW5mb0Bv
cGVubmV0LWZvcnVtLmRlMIIBIjANBgkqhkiG9w0BAQEFAAOCAQ8AMIIBCgKCAQEA
u1L/yTFYcGQiDe/Bgadlz3eYyz0zZthejP8VRdQIsqXS2Ho2OjMsMxCQOppaST7l
D1lWliG2YDPCKSCmKWXCY572XgUZ98QqYT1wfjN8hAwDa974y5S/JX7D4cYc3DZC
h0jIE6gEu72bB3cRSaOA4i5czHRXsWxkfdF19BsPgMMp3wCx/IjNj1KU/AfVATU4
iBdHe74fzuifeJsCx9UbBOugP3TU3lTNmpORAJIP4wGYwPryP+05k2RcEdOvolKP
qZzi2hi7aaDe3jb6buzjlQJXZNwDStFjnlqYe4ofddOCEUvQV6aBkLJXe8LXPVjk
cb4sE9RAqnuTS6pj/B63nwIDAQABo4HtMIHqMB0GA1UdDgQWBBQqhv8v5THmbBIi
Fb+WnFaBcuu4MjCBugYDVR0jBIGyMIGvgBQqhv8v5THmbBIiFb+WnFaBcuu4MqGB
k6SBkDCBjTELMAkGA1UEBhMCREUxHzAdBgNVBAgTFk1lY2tsZW5idXJnLVZvcnBv
bW1lcm4xEDAOBgNVBAcTB1Jvc3RvY2sxEDAOBgNVBAoTB09wZW5OZXQxEzARBgNV
BAMTCk9wZW5OZXQtQ0ExJDAiBgkqhkiG9w0BCQEWFWluZm9Ab3Blbm5ldC1mb3J1
bS5kZYIBADAMBgNVHRMEBTADAQH/MA0GCSqGSIb3DQEBBAUAA4IBAQAt1uF9TFgx
39ZZpwIU9WRQk+Nvv8vXM3z6xAOnC1R0lDrmEv7kxJFGBRQXPv8HUD15biZQeQ00
QIUNMEd8s92v9jdrc52DZ8ivva8eiefUfPJbPJtdsKWpCqQLQIpCmew3deOtfMN8
ZMq7boUQ1dgniJl8nmUJzJdSgpWY9MMElVBNmJ08++WI7JegNpd+O7j7aL+YXtWc
+epfbKqCyjQiGjBYQxzgH477UjW/RjnJY3v8wAfXrYGCfZvJYIA8Amwq7SeMVHuA
eq6+u5HhCtlkmsXogpuw4KW7VFTCQJ9vUiS7MIgw1oohmDXd18yRpw4+4GshzeaE
RN2EbaPHFlUX
-----END CERTIFICATE-----
