Certificate:
    Data:
        Version: 3 (0x2)
        Serial Number:
            d0:94:11:ca:45:ba:b5:f1
    Signature Algorithm: sha512WithRSAEncryption
        Issuer: C=DE, ST=Mecklenburg-Vorpommern, O=Opennet Initiative e.V., OU=Opennet CA, CN=opennet-root.ca.on/emailAddress=admin@opennet-initiative.de
        Validity
            Not Before: Dec 22 00:00:00 2013 GMT
            Not After : Dec 21 23:59:59 2033 GMT
        Subject: C=DE, ST=Mecklenburg-Vorpommern, O=Opennet Initiative e.V., OU=Opennet CA, CN=opennet-root.ca.on/emailAddress=admin@opennet-initiative.de
        Subject Public Key Info:
            Public Key Algorithm: rsaEncryption
                Public-Key: (4096 bit)
                Modulus:
                    00:d6:b7:ad:01:d9:5e:c6:d3:55:c5:93:1b:c8:62:
                    82:07:a7:31:12:24:77:e5:5b:73:05:94:96:2b:cc:
                    41:6b:b9:45:38:89:c5:e7:1c:72:58:1f:39:5f:19:
                    1e:31:88:c2:8b:9a:71:2e:c8:67:dd:c7:92:bb:ad:
                    cf:03:4c:83:5b:4a:dd:ec:8d:72:5a:d0:7f:f9:d3:
                    5e:41:b1:a8:83:3c:5f:27:22:b4:78:2a:77:77:0f:
                    4e:cb:8b:e6:cd:2c:e7:08:1b:82:3a:52:38:11:62:
                    9a:96:a6:ae:63:45:be:ab:35:24:86:e5:4d:59:72:
                    d3:c8:eb:4b:41:f1:43:a4:07:a6:21:0b:1f:44:4e:
                    34:69:ef:8c:27:9e:60:be:58:53:94:46:2d:9b:bf:
                    2e:33:8e:50:7a:cd:ee:ab:d2:27:34:df:75:0b:96:
                    6c:33:30:f0:ec:0d:9a:98:85:35:ad:42:ec:ff:86:
                    f6:fe:38:a7:8c:30:b9:2a:b2:47:74:3f:cc:7e:e0:
                    6a:d1:90:93:7c:8d:fb:8a:50:1b:78:08:2a:c1:0d:
                    ad:04:a9:fd:4f:39:15:0a:ac:61:87:37:de:61:78:
                    19:80:f8:23:22:be:95:01:0c:ab:50:f6:72:0a:eb:
                    38:f2:f4:30:e9:8f:7b:c6:02:3d:4d:fe:0a:15:9a:
                    18:b8:71:e8:d8:be:fc:31:39:aa:f6:76:20:7a:16:
                    91:8a:55:a3:55:1c:00:4e:fc:8d:ae:1d:6e:39:5c:
                    58:ae:a2:90:86:74:fd:e3:18:7f:04:ee:9e:23:89:
                    cc:75:91:42:93:68:15:9b:03:7e:a0:86:9a:54:74:
                    e6:54:b5:16:b5:ff:b7:e5:c5:f0:0f:a2:74:63:83:
                    80:ce:91:c0:f2:7f:cf:e5:ca:cf:80:fc:ac:ac:12:
                    f7:61:87:6a:7b:c5:68:f8:f5:93:50:0e:12:44:b4:
                    4d:db:d3:e1:0f:b4:65:10:55:6c:98:8d:09:03:5c:
                    06:1f:08:31:16:c8:ca:b6:51:4f:72:c1:0b:38:45:
                    fc:d0:81:8f:fc:1e:42:83:d7:41:2a:46:72:09:62:
                    41:60:ad:b2:de:9e:0c:18:17:bb:b2:ae:e6:ca:74:
                    10:06:87:c1:f7:e4:b3:9f:d9:a0:32:bb:86:a5:e9:
                    97:7c:c0:8d:45:e4:57:69:93:a1:15:ed:21:6b:aa:
                    c3:5e:bc:33:fd:ad:b5:86:ff:da:15:45:5e:ee:85:
                    28:1e:2f:c1:1b:b8:5d:e0:dd:ed:a2:2d:60:c9:8b:
                    87:71:b9:87:42:8d:bb:39:a0:5f:f2:42:36:96:7d:
                    60:80:f6:f8:85:c4:61:ca:e6:67:8a:39:dd:99:74:
                    58:47:51
                Exponent: 65537 (0x10001)
        X509v3 extensions:
            X509v3 Basic Constraints: critical
                CA:TRUE
            X509v3 Subject Key Identifier: 
                FA:DA:A6:25:24:2C:20:E7:E5:A3:5F:2F:9F:6B:C1:EA:19:1A:F8:C1
            X509v3 Key Usage: 
                Certificate Sign, CRL Sign
            X509v3 CRL Distribution Points: 

                Full Name:
                  URI:http://ca.opennet-initiative.de/root.crl

            Netscape Cert Type: 
                SSL CA, S/MIME CA, Object Signing CA
            Netscape Base Url: 
                http://ca.opennet-initiative.de/
            Netscape Revocation Url: 
                http://ca.opennet-initiative.de/root.crl
            Netscape CA Revocation Url: 
                http://ca.opennet-initiative.de/root.crl
            Netscape CA Policy Url: 
                http://ca.opennet-initiative.de/
            Netscape Comment: 
                Opennet Root CA
    Signature Algorithm: sha512WithRSAEncryption
         05:cf:01:9d:3a:ac:b6:a6:70:8c:72:57:66:da:97:ed:d6:f7:
         b2:24:9c:ce:75:5a:0d:db:26:86:fb:f5:2f:b3:08:b3:b2:c7:
         e2:77:5f:9b:61:1b:8c:12:7c:ee:e0:d1:51:f1:59:7f:66:4c:
         d3:c4:f0:06:d4:45:12:71:78:15:5e:75:d9:61:c5:fc:a7:10:
         8b:48:44:1a:a7:9e:80:ee:30:d6:3c:a2:1b:68:c7:ac:77:78:
         c6:d3:70:67:6a:d0:f8:80:0e:7b:8f:d9:a3:3c:75:6a:eb:f3:
         8e:77:83:d8:d0:a8:c6:49:b4:09:a5:47:14:d2:31:5f:3b:fd:
         a5:fa:c2:78:80:0c:b4:a0:f6:6e:27:5e:49:f1:43:d8:72:18:
         af:9d:23:a1:b0:ea:63:06:6e:59:ed:06:4b:93:a4:bb:a3:4a:
         36:f3:b8:5b:f9:dc:00:ec:49:46:c2:51:5b:da:e0:64:0e:71:
         22:7b:4b:f5:8b:a0:98:c3:c2:c0:e4:3e:f5:11:99:6c:3f:1f:
         64:51:7f:c5:2b:e6:8f:8f:84:20:f9:52:bc:b7:74:63:ee:c5:
         75:cc:7f:5c:91:6a:e6:5f:21:4c:df:3e:cc:75:b0:80:15:84:
         92:f7:02:52:c6:0f:10:f4:2a:75:64:d2:2b:64:c3:32:42:4b:
         2b:6d:90:1f:6a:cf:ee:69:20:70:30:27:7b:3b:ac:cf:e5:f3:
         37:cb:2c:29:d4:9d:3d:49:3f:3f:e2:75:33:f0:d8:41:24:c2:
         c1:4b:6c:05:92:9c:ad:84:77:04:63:86:5a:05:b6:82:92:45:
         b6:a6:02:8c:4c:fc:ee:e0:90:d2:a2:b3:e6:74:f5:88:7e:8a:
         05:35:8b:af:24:39:bd:7e:ef:4a:9d:30:7a:cb:94:dc:c7:42:
         ef:99:e2:74:03:0c:44:80:97:da:f6:75:68:1e:67:2a:3d:d2:
         cc:e0:98:2a:cb:fb:15:c6:f6:83:9f:b9:20:74:fc:db:38:8d:
         c3:94:a4:bb:71:ea:4c:1f:61:d3:4d:d6:a3:35:dd:41:cb:f8:
         70:97:ee:4c:ac:82:be:10:c1:17:59:1a:44:7d:76:91:aa:91:
         7e:48:79:3d:0d:d6:98:d9:e4:8f:76:89:fa:61:ec:de:a6:9b:
         7e:85:d0:88:16:2e:82:fa:1e:4b:82:3c:e3:01:c6:5e:fa:29:
         b3:1e:e8:a7:14:82:2f:69:93:da:02:93:12:50:44:01:cd:5a:
         3e:1b:e2:c4:2b:22:51:3b:62:c4:e1:1e:d4:71:8d:c8:63:7f:
         9f:bd:ce:00:43:76:d3:99:e5:c3:7d:32:03:ae:44:a5:ca:3e:
         b9:01:c8:4c:02:c8:e4:55
-----BEGIN CERTIFICATE-----
MIIHZjCCBU6gAwIBAgIJANCUEcpFurXxMA0GCSqGSIb3DQEBDQUAMIGuMQswCQYD
VQQGEwJERTEfMB0GA1UECBMWTWVja2xlbmJ1cmctVm9ycG9tbWVybjEgMB4GA1UE
ChMXT3Blbm5ldCBJbml0aWF0aXZlIGUuVi4xEzARBgNVBAsTCk9wZW5uZXQgQ0Ex
GzAZBgNVBAMTEm9wZW5uZXQtcm9vdC5jYS5vbjEqMCgGCSqGSIb3DQEJARYbYWRt
aW5Ab3Blbm5ldC1pbml0aWF0aXZlLmRlMB4XDTEzMTIyMjAwMDAwMFoXDTMzMTIy
MTIzNTk1OVowga4xCzAJBgNVBAYTAkRFMR8wHQYDVQQIExZNZWNrbGVuYnVyZy1W
b3Jwb21tZXJuMSAwHgYDVQQKExdPcGVubmV0IEluaXRpYXRpdmUgZS5WLjETMBEG
A1UECxMKT3Blbm5ldCBDQTEbMBkGA1UEAxMSb3Blbm5ldC1yb290LmNhLm9uMSow
KAYJKoZIhvcNAQkBFhthZG1pbkBvcGVubmV0LWluaXRpYXRpdmUuZGUwggIiMA0G
CSqGSIb3DQEBAQUAA4ICDwAwggIKAoICAQDWt60B2V7G01XFkxvIYoIHpzESJHfl
W3MFlJYrzEFruUU4icXnHHJYHzlfGR4xiMKLmnEuyGfdx5K7rc8DTINbSt3sjXJa
0H/5015BsaiDPF8nIrR4Knd3D07Li+bNLOcIG4I6UjgRYpqWpq5jRb6rNSSG5U1Z
ctPI60tB8UOkB6YhCx9ETjRp74wnnmC+WFOURi2bvy4zjlB6ze6r0ic033ULlmwz
MPDsDZqYhTWtQuz/hvb+OKeMMLkqskd0P8x+4GrRkJN8jfuKUBt4CCrBDa0Eqf1P
ORUKrGGHN95heBmA+CMivpUBDKtQ9nIK6zjy9DDpj3vGAj1N/goVmhi4cejYvvwx
Oar2diB6FpGKVaNVHABO/I2uHW45XFiuopCGdP3jGH8E7p4jicx1kUKTaBWbA36g
hppUdOZUtRa1/7flxfAPonRjg4DOkcDyf8/lys+A/KysEvdhh2p7xWj49ZNQDhJE
tE3b0+EPtGUQVWyYjQkDXAYfCDEWyMq2UU9ywQs4RfzQgY/8HkKD10EqRnIJYkFg
rbLengwYF7uyrubKdBAGh8H35LOf2aAyu4al6Zd8wI1F5Fdpk6EV7SFrqsNevDP9
rbWG/9oVRV7uhSgeL8EbuF3g3e2iLWDJi4dxuYdCjbs5oF/yQjaWfWCA9viFxGHK
5meKOd2ZdFhHUQIDAQABo4IBgzCCAX8wDwYDVR0TAQH/BAUwAwEB/zAdBgNVHQ4E
FgQU+tqmJSQsIOflo18vn2vB6hka+MEwCwYDVR0PBAQDAgEGMDkGA1UdHwQyMDAw
LqAsoCqGKGh0dHA6Ly9jYS5vcGVubmV0LWluaXRpYXRpdmUuZGUvcm9vdC5jcmww
EQYJYIZIAYb4QgEBBAQDAgAHMC8GCWCGSAGG+EIBAgQiFiBodHRwOi8vY2Eub3Bl
bm5ldC1pbml0aWF0aXZlLmRlLzA3BglghkgBhvhCAQMEKhYoaHR0cDovL2NhLm9w
ZW5uZXQtaW5pdGlhdGl2ZS5kZS9yb290LmNybDA3BglghkgBhvhCAQQEKhYoaHR0
cDovL2NhLm9wZW5uZXQtaW5pdGlhdGl2ZS5kZS9yb290LmNybDAvBglghkgBhvhC
AQgEIhYgaHR0cDovL2NhLm9wZW5uZXQtaW5pdGlhdGl2ZS5kZS8wHgYJYIZIAYb4
QgENBBEWD09wZW5uZXQgUm9vdCBDQTANBgkqhkiG9w0BAQ0FAAOCAgEABc8BnTqs
tqZwjHJXZtqX7db3siScznVaDdsmhvv1L7MIs7LH4ndfm2EbjBJ87uDRUfFZf2ZM
08TwBtRFEnF4FV512WHF/KcQi0hEGqeegO4w1jyiG2jHrHd4xtNwZ2rQ+IAOe4/Z
ozx1auvzjneD2NCoxkm0CaVHFNIxXzv9pfrCeIAMtKD2bideSfFD2HIYr50jobDq
YwZuWe0GS5Oku6NKNvO4W/ncAOxJRsJRW9rgZA5xIntL9YugmMPCwOQ+9RGZbD8f
ZFF/xSvmj4+EIPlSvLd0Y+7Fdcx/XJFq5l8hTN8+zHWwgBWEkvcCUsYPEPQqdWTS
K2TDMkJLK22QH2rP7mkgcDAnezusz+XzN8ssKdSdPUk/P+J1M/DYQSTCwUtsBZKc
rYR3BGOGWgW2gpJFtqYCjEz87uCQ0qKz5nT1iH6KBTWLryQ5vX7vSp0wesuU3MdC
75nidAMMRICX2vZ1aB5nKj3SzOCYKsv7Fcb2g5+5IHT82ziNw5Sku3HqTB9h003W
ozXdQcv4cJfuTKyCvhDBF1kaRH12kaqRfkh5PQ3WmNnkj3aJ+mHs3qabfoXQiBYu
gvoeS4I84wHGXvopsx7opxSCL2mT2gKTElBEAc1aPhvixCsiUTtixOEe1HGNyGN/
n73OAEN205nlw30yA65Epco+uQHITALI5FU=
-----END CERTIFICATE-----
